	.file	"echo.c"
	.text
	.globl	echo
	.type	echo, @function
echo:
.LFB24:
	.cfi_startproc
	endbr64
	pushq	%rbx
	.cfi_def_cfa_offset 16
	.cfi_offset 3, -16
	subq	$16, %rsp
	.cfi_def_cfa_offset 32
	movq	%fs:40, %rax
	movq	%rax, 8(%rsp)
	xorl	%eax, %eax
	leaq	4(%rsp), %rbx
	movq	%rbx, %rdi
	call	gets@PLT
	movq	%rbx, %rdi
	call	puts@PLT
	movq	8(%rsp), %rax
	subq	%fs:40, %rax
	jne	.L4
	addq	$16, %rsp
	.cfi_remember_state
	.cfi_def_cfa_offset 16
	popq	%rbx
	.cfi_def_cfa_offset 8
	ret
.L4:
	.cfi_restore_state
	call	__stack_chk_fail@PLT
	.cfi_endproc
.LFE24:
	.size	echo, .-echo
	.globl	call_echo
	.type	call_echo, @function
call_echo:
.LFB25:
	.cfi_startproc
	endbr64
	subq	$8, %rsp
	.cfi_def_cfa_offset 16
	movl	$0, %eax
	call	echo
	addq	$8, %rsp
	.cfi_def_cfa_offset 8
	ret
	.cfi_endproc
.LFE25:
	.size	call_echo, .-call_echo
	.globl	main
	.type	main, @function
main:
.LFB23:
	.cfi_startproc
	endbr64
	subq	$8, %rsp
	.cfi_def_cfa_offset 16
	movl	$0, %eax
	call	call_echo
	movl	$0, %eax
	addq	$8, %rsp
	.cfi_def_cfa_offset 8
	ret
	.cfi_endproc
.LFE23:
	.size	main, .-main
	.ident	"GCC: (Ubuntu 11.4.0-1ubuntu1~22.04) 11.4.0"
	.section	.note.GNU-stack,"",@progbits
	.section	.note.gnu.property,"a"
	.align 8
	.long	1f - 0f
	.long	4f - 1f
	.long	5
0:
	.string	"GNU"
1:
	.align 8
	.long	0xc0000002
	.long	3f - 2f
2:
	.long	0x3
3:
	.align 8
4:
